target datalayout = "e-m:e-p270:32:32-p271:32:32-p272:64:64-i64:64-i128:128-f80:128-n8:16:32:64-S128"
target triple = "x86_64-unknown-linux-gnu"

; Function Attrs: nounwind uwtable
define internal i32 @sdsHdrSize(i8 noundef signext %type) #0 {
entry:
  %retval = alloca i32, align 4
  %type.addr = alloca i8, align 1
  store i8 %type, ptr %type.addr, align 1
  %0 = load i8, ptr %type.addr, align 1
  %conv = sext i8 %0 to i32
  %and = and i32 %conv, 7
  switch i32 %and, label %sw.epilog [
    i32 0, label %sw.bb
    i32 1, label %sw.bb1
    i32 2, label %sw.bb2
    i32 3, label %sw.bb3
    i32 4, label %sw.bb4
  ]

sw.bb:                                            ; preds = %entry
  store i32 1, ptr %retval, align 4
  br label %return

sw.bb1:                                           ; preds = %entry
  store i32 3, ptr %retval, align 4
  br label %return

sw.bb2:                                           ; preds = %entry
  store i32 5, ptr %retval, align 4
  br label %return

sw.bb3:                                           ; preds = %entry
  store i32 9, ptr %retval, align 4
  br label %return

sw.bb4:                                           ; preds = %entry
  store i32 17, ptr %retval, align 4
  br label %return

sw.epilog:                                        ; preds = %entry
  store i32 0, ptr %retval, align 4
  br label %return

return:                                           ; preds = %sw.epilog, %sw.bb4, %sw.bb3, %sw.bb2, %sw.bb1, %sw.bb
  %1 = load i32, ptr %retval, align 4
  ret i32 %1
}

; Function Attrs: nounwind uwtable
define dso_local void @sdsfree(ptr noundef %s) #0 {
entry:
  %s.addr = alloca ptr, align 8
  store ptr %s, ptr %s.addr, align 8
  %0 = load ptr, ptr %s.addr, align 8
  %cmp = icmp eq ptr %0, null
  br i1 %cmp, label %if.then, label %if.end

if.then:                                          ; preds = %entry
  br label %return

if.end:                                           ; preds = %entry
  %1 = load ptr, ptr %s.addr, align 8
  %2 = load ptr, ptr %s.addr, align 8
  %arrayidx = getelementptr inbounds i8, ptr %2, i64 -1
  %3 = load i8, ptr %arrayidx, align 1
  %call = call i32 @sdsHdrSize(i8 noundef signext %3)
  %idx.ext = sext i32 %call to i64
  %idx.neg = sub i64 0, %idx.ext
  %add.ptr = getelementptr inbounds i8, ptr %1, i64 %idx.neg
  call void @zfree(ptr noundef %add.ptr)
  br label %return

return:                                           ; preds = %if.end, %if.then
  ret void
}

; Function Attrs: nounwind uwtable
define dso_local ptr @sdsnewlen(ptr noundef %init, i64 noundef %initlen) #0 {
entry:
  %init.addr = alloca ptr, align 8
  %initlen.addr = alloca i64, align 8
  store ptr %init, ptr %init.addr, align 8
  store i64 %initlen, ptr %initlen.addr, align 8
  %0 = load ptr, ptr %init.addr, align 8
  %1 = load i64, ptr %initlen.addr, align 8
  %call = call ptr @_sdsnewlen(ptr noundef %0, i64 noundef %1, i32 noundef 0)
  ret ptr %call
}

; Function Attrs: nounwind uwtable
define dso_local ptr @sdssplitlen(ptr noundef %s, i64 noundef %len, ptr noundef %sep, i32 noundef %seplen, ptr noundef %count) #0 {
entry:
  %retval = alloca ptr, align 8
  %s.addr = alloca ptr, align 8
  %len.addr = alloca i64, align 8
  %sep.addr = alloca ptr, align 8
  %seplen.addr = alloca i32, align 4
  %count.addr = alloca ptr, align 8
  %elements = alloca i32, align 4
  %slots = alloca i32, align 4
  %start = alloca i64, align 8
  %j = alloca i64, align 8
  %tokens = alloca ptr, align 8
  %newtokens = alloca ptr, align 8
  %i = alloca i32, align 4
  store ptr %s, ptr %s.addr, align 8
  store i64 %len, ptr %len.addr, align 8
  store ptr %sep, ptr %sep.addr, align 8
  store i32 %seplen, ptr %seplen.addr, align 4
  store ptr %count, ptr %count.addr, align 8
  store i32 0, ptr %elements, align 4
  store i32 5, ptr %slots, align 4
  store i64 0, ptr %start, align 8
  %0 = load i32, ptr %seplen.addr, align 4
  %cmp = icmp slt i32 %0, 1
  br i1 %cmp, label %if.then, label %lor.lhs.false

lor.lhs.false:                                    ; preds = %entry
  %1 = load i64, ptr %len.addr, align 8
  %cmp1 = icmp sle i64 %1, 0
  br i1 %cmp1, label %if.then, label %if.end

if.then:                                          ; preds = %lor.lhs.false, %entry
  %2 = load ptr, ptr %count.addr, align 8
  store i32 0, ptr %2, align 4
  store ptr null, ptr %retval, align 8
  br label %return

if.end:                                           ; preds = %lor.lhs.false
  %3 = load i32, ptr %slots, align 4
  %conv = sext i32 %3 to i64
  %mul = mul i64 8, %conv
  %call = call noalias ptr @zmalloc(i64 noundef %mul) #15
  store ptr %call, ptr %tokens, align 8
  %4 = load ptr, ptr %tokens, align 8
  %cmp2 = icmp eq ptr %4, null
  br i1 %cmp2, label %if.then4, label %if.end5

if.then4:                                         ; preds = %if.end
  store ptr null, ptr %retval, align 8
  br label %return

if.end5:                                          ; preds = %if.end
  store i64 0, ptr %j, align 8
  br label %for.cond

for.cond:                                         ; preds = %for.inc, %if.end5
  %5 = load i64, ptr %j, align 8
  %6 = load i64, ptr %len.addr, align 8
  %7 = load i32, ptr %seplen.addr, align 4
  %sub = sub nsw i32 %7, 1
  %conv6 = sext i32 %sub to i64
  %sub7 = sub nsw i64 %6, %conv6
  %cmp8 = icmp slt i64 %5, %sub7
  br i1 %cmp8, label %for.body, label %for.end

for.body:                                         ; preds = %for.cond
  %8 = load i32, ptr %slots, align 4
  %9 = load i32, ptr %elements, align 4
  %add = add nsw i32 %9, 2
  %cmp10 = icmp slt i32 %8, %add
  br i1 %cmp10, label %if.then12, label %if.end21

if.then12:                                        ; preds = %for.body
  %10 = load i32, ptr %slots, align 4
  %mul13 = mul nsw i32 %10, 2
  store i32 %mul13, ptr %slots, align 4
  %11 = load ptr, ptr %tokens, align 8
  %12 = load i32, ptr %slots, align 4
  %conv14 = sext i32 %12 to i64
  %mul15 = mul i64 8, %conv14
  %call16 = call ptr @zrealloc(ptr noundef %11, i64 noundef %mul15) #14
  store ptr %call16, ptr %newtokens, align 8
  %13 = load ptr, ptr %newtokens, align 8
  %cmp17 = icmp eq ptr %13, null
  br i1 %cmp17, label %if.then19, label %if.end20

if.then19:                                        ; preds = %if.then12
  br label %cleanup

if.end20:                                         ; preds = %if.then12
  %14 = load ptr, ptr %newtokens, align 8
  store ptr %14, ptr %tokens, align 8
  br label %if.end21

if.end21:                                         ; preds = %if.end20, %for.body
  %15 = load i32, ptr %seplen.addr, align 4
  %cmp22 = icmp eq i32 %15, 1
  br i1 %cmp22, label %land.lhs.true, label %lor.lhs.false28

land.lhs.true:                                    ; preds = %if.end21
  %16 = load ptr, ptr %s.addr, align 8
  %17 = load i64, ptr %j, align 8
  %add.ptr = getelementptr inbounds i8, ptr %16, i64 %17
  %18 = load i8, ptr %add.ptr, align 1
  %conv24 = sext i8 %18 to i32
  %19 = load ptr, ptr %sep.addr, align 8
  %arrayidx = getelementptr inbounds i8, ptr %19, i64 0
  %20 = load i8, ptr %arrayidx, align 1
  %conv25 = sext i8 %20 to i32
  %cmp26 = icmp eq i32 %conv24, %conv25
  br i1 %cmp26, label %if.then34, label %lor.lhs.false28

lor.lhs.false28:                                  ; preds = %land.lhs.true, %if.end21
  %21 = load ptr, ptr %s.addr, align 8
  %22 = load i64, ptr %j, align 8
  %add.ptr29 = getelementptr inbounds i8, ptr %21, i64 %22
  %23 = load ptr, ptr %sep.addr, align 8
  %24 = load i32, ptr %seplen.addr, align 4
  %conv30 = sext i32 %24 to i64
  %call31 = call i32 @memcmp(ptr noundef %add.ptr29, ptr noundef %23, i64 noundef %conv30) #12
  %cmp32 = icmp eq i32 %call31, 0
  br i1 %cmp32, label %if.then34, label %if.end50

if.then34:                                        ; preds = %lor.lhs.false28, %land.lhs.true
  %25 = load ptr, ptr %s.addr, align 8
  %26 = load i64, ptr %start, align 8
  %add.ptr35 = getelementptr inbounds i8, ptr %25, i64 %26
  %27 = load i64, ptr %j, align 8
  %28 = load i64, ptr %start, align 8
  %sub36 = sub nsw i64 %27, %28
  %call37 = call ptr @sdsnewlen(ptr noundef %add.ptr35, i64 noundef %sub36)
  %29 = load ptr, ptr %tokens, align 8
  %30 = load i32, ptr %elements, align 4
  %idxprom = sext i32 %30 to i64
  %arrayidx38 = getelementptr inbounds ptr, ptr %29, i64 %idxprom
  store ptr %call37, ptr %arrayidx38, align 8
  %31 = load ptr, ptr %tokens, align 8
  %32 = load i32, ptr %elements, align 4
  %idxprom39 = sext i32 %32 to i64
  %arrayidx40 = getelementptr inbounds ptr, ptr %31, i64 %idxprom39
  %33 = load ptr, ptr %arrayidx40, align 8
  %cmp41 = icmp eq ptr %33, null
  br i1 %cmp41, label %if.then43, label %if.end44

if.then43:                                        ; preds = %if.then34
  br label %cleanup

if.end44:                                         ; preds = %if.then34
  %34 = load i32, ptr %elements, align 4
  %inc = add nsw i32 %34, 1
  store i32 %inc, ptr %elements, align 4
  %35 = load i64, ptr %j, align 8
  %36 = load i32, ptr %seplen.addr, align 4
  %conv45 = sext i32 %36 to i64
  %add46 = add nsw i64 %35, %conv45
  store i64 %add46, ptr %start, align 8
  %37 = load i64, ptr %j, align 8
  %38 = load i32, ptr %seplen.addr, align 4
  %conv47 = sext i32 %38 to i64
  %add48 = add nsw i64 %37, %conv47
  %sub49 = sub nsw i64 %add48, 1
  store i64 %sub49, ptr %j, align 8
  br label %if.end50

if.end50:                                         ; preds = %if.end44, %lor.lhs.false28
  br label %for.inc

for.inc:                                          ; preds = %if.end50
  %39 = load i64, ptr %j, align 8
  %inc51 = add nsw i64 %39, 1
  store i64 %inc51, ptr %j, align 8
  br label %for.cond, !llvm.loop !11

for.end:                                          ; preds = %for.cond
  %40 = load ptr, ptr %s.addr, align 8
  %41 = load i64, ptr %start, align 8
  %add.ptr52 = getelementptr inbounds i8, ptr %40, i64 %41
  %42 = load i64, ptr %len.addr, align 8
  %43 = load i64, ptr %start, align 8
  %sub53 = sub nsw i64 %42, %43
  %call54 = call ptr @sdsnewlen(ptr noundef %add.ptr52, i64 noundef %sub53)
  %44 = load ptr, ptr %tokens, align 8
  %45 = load i32, ptr %elements, align 4
  %idxprom55 = sext i32 %45 to i64
  %arrayidx56 = getelementptr inbounds ptr, ptr %44, i64 %idxprom55
  store ptr %call54, ptr %arrayidx56, align 8
  %46 = load ptr, ptr %tokens, align 8
  %47 = load i32, ptr %elements, align 4
  %idxprom57 = sext i32 %47 to i64
  %arrayidx58 = getelementptr inbounds ptr, ptr %46, i64 %idxprom57
  %48 = load ptr, ptr %arrayidx58, align 8
  %cmp59 = icmp eq ptr %48, null
  br i1 %cmp59, label %if.then61, label %if.end62

if.then61:                                        ; preds = %for.end
  br label %cleanup

if.end62:                                         ; preds = %for.end
  %49 = load i32, ptr %elements, align 4
  %inc63 = add nsw i32 %49, 1
  store i32 %inc63, ptr %elements, align 4
  %50 = load i32, ptr %elements, align 4
  %51 = load ptr, ptr %count.addr, align 8
  store i32 %50, ptr %51, align 4
  %52 = load ptr, ptr %tokens, align 8
  store ptr %52, ptr %retval, align 8
  br label %return

cleanup:                                          ; preds = %if.then61, %if.then43, %if.then19
  store i32 0, ptr %i, align 4
  br label %for.cond64

for.cond64:                                       ; preds = %for.inc70, %cleanup
  %53 = load i32, ptr %i, align 4
  %54 = load i32, ptr %elements, align 4
  %cmp65 = icmp slt i32 %53, %54
  br i1 %cmp65, label %for.body67, label %for.end72

for.body67:                                       ; preds = %for.cond64
  %55 = load ptr, ptr %tokens, align 8
  %56 = load i32, ptr %i, align 4
  %idxprom68 = sext i32 %56 to i64
  %arrayidx69 = getelementptr inbounds ptr, ptr %55, i64 %idxprom68
  %57 = load ptr, ptr %arrayidx69, align 8
  call void @sdsfree(ptr noundef %57)
  br label %for.inc70

for.inc70:                                        ; preds = %for.body67
  %58 = load i32, ptr %i, align 4
  %inc71 = add nsw i32 %58, 1
  store i32 %inc71, ptr %i, align 4
  br label %for.cond64, !llvm.loop !12

for.end72:                                        ; preds = %for.cond64
  %59 = load ptr, ptr %tokens, align 8
  call void @zfree(ptr noundef %59)
  %60 = load ptr, ptr %count.addr, align 8
  store i32 0, ptr %60, align 4
  store ptr null, ptr %retval, align 8
  br label %return

return:                                           ; preds = %for.end72, %if.end62, %if.then4, %if.then
  %61 = load ptr, ptr %retval, align 8
  ret ptr %61
}