; Function Attrs: nounwind uwtable
define dso_local ptr @sdssplitlen(ptr noundef %s, i64 noundef %len, ptr nocapture noundef readonly %sep, i32 noundef %seplen, ptr nocapture noundef writeonly %count) local_unnamed_addr #0 {
entry:
  %cmp = icmp slt i32 %seplen, 1
  %cmp1 = icmp slt i64 %len, 1
  %or.cond = or i1 %cmp1, %cmp
  br i1 %or.cond, label %return.sink.split, label %if.end

if.end:                                           ; preds = %entry
  %call = tail call noalias dereferenceable_or_null(40) ptr @zmalloc(i64 noundef 40) #29
  %cmp2 = icmp eq ptr %call, null
  br i1 %cmp2, label %return, label %for.cond.preheader

for.cond.preheader:                               ; preds = %if.end
  %sub = add nsw i32 %seplen, -1
  %conv6 = zext nneg i32 %sub to i64
  %sub7 = sub nsw i64 %len, %conv6
  %cmp850 = icmp sgt i64 %sub7, 0
  br i1 %cmp850, label %for.body.lr.ph, label %for.end

for.body.lr.ph:                                   ; preds = %for.cond.preheader
  %cmp22 = icmp eq i32 %seplen, 1
  %conv30 = zext nneg i32 %seplen to i64
  br i1 %cmp22, label %for.body.us, label %for.body

for.body.us:                                      ; preds = %for.body.lr.ph, %for.inc.us
  %tokens.055.us = phi ptr [ %tokens.1.us, %for.inc.us ], [ %call, %for.body.lr.ph ]
  %j.054.us = phi i64 [ %inc51.us, %for.inc.us ], [ 0, %for.body.lr.ph ]
  %start.053.us = phi i64 [ %start.1.us, %for.inc.us ], [ 0, %for.body.lr.ph ]
  %slots.052.us = phi i32 [ %slots.1.us, %for.inc.us ], [ 5, %for.body.lr.ph ]
  %elements.051.us = phi i32 [ %elements.1.us, %for.inc.us ], [ 0, %for.body.lr.ph ]
  %add.us = add nsw i32 %elements.051.us, 2
  %cmp10.us = icmp slt i32 %slots.052.us, %add.us
  br i1 %cmp10.us, label %if.then12.us, label %if.end21.us

if.then12.us:                                     ; preds = %for.body.us
  %mul13.us = shl nsw i32 %slots.052.us, 1
  %conv14.us = sext i32 %mul13.us to i64
  %mul15.us = shl nsw i64 %conv14.us, 3
  %call16.us = tail call ptr @zrealloc(ptr noundef %tokens.055.us, i64 noundef %mul15.us) #28
  %cmp17.us = icmp eq ptr %call16.us, null
  br i1 %cmp17.us, label %cleanup, label %if.end21.us

if.end21.us:                                      ; preds = %if.then12.us, %for.body.us
  %slots.1.us = phi i32 [ %slots.052.us, %for.body.us ], [ %mul13.us, %if.then12.us ]
  %tokens.1.us = phi ptr [ %tokens.055.us, %for.body.us ], [ %call16.us, %if.then12.us ]
  %add.ptr.us = getelementptr inbounds i8, ptr %s, i64 %j.054.us
  %0 = load i8, ptr %add.ptr.us, align 1
  %1 = load i8, ptr %sep, align 1
  %cmp26.us = icmp eq i8 %0, %1
  br i1 %cmp26.us, label %if.then34.us, label %lor.lhs.false28.us

lor.lhs.false28.us:                               ; preds = %if.end21.us
  %bcmp.us = tail call i32 @bcmp(ptr nonnull %add.ptr.us, ptr nonnull %sep, i64 %conv30)
  %cmp32.us = icmp eq i32 %bcmp.us, 0
  br i1 %cmp32.us, label %if.then34.us, label %for.inc.us

if.then34.us:                                     ; preds = %lor.lhs.false28.us, %if.end21.us
  %add.ptr35.us = getelementptr inbounds i8, ptr %s, i64 %start.053.us
  %sub36.us = sub nsw i64 %j.054.us, %start.053.us
  %call.i.us = tail call ptr @_sdsnewlen(ptr noundef %add.ptr35.us, i64 noundef %sub36.us, i32 noundef 0)
  %idxprom.us = sext i32 %elements.051.us to i64
  %arrayidx38.us = getelementptr inbounds ptr, ptr %tokens.1.us, i64 %idxprom.us
  store ptr %call.i.us, ptr %arrayidx38.us, align 8
  %cmp41.us = icmp eq ptr %call.i.us, null
  br i1 %cmp41.us, label %cleanup, label %if.end44.us

if.end44.us:                                      ; preds = %if.then34.us
  %inc.us = add nsw i32 %elements.051.us, 1
  %add46.us = add nsw i64 %j.054.us, %conv30
  %sub49.us = add nsw i64 %add46.us, -1
  br label %for.inc.us

for.inc.us:                                       ; preds = %if.end44.us, %lor.lhs.false28.us
  %elements.1.us = phi i32 [ %inc.us, %if.end44.us ], [ %elements.051.us, %lor.lhs.false28.us ]
  %start.1.us = phi i64 [ %add46.us, %if.end44.us ], [ %start.053.us, %lor.lhs.false28.us ]
  %j.1.us = phi i64 [ %sub49.us, %if.end44.us ], [ %j.054.us, %lor.lhs.false28.us ]
  %inc51.us = add nsw i64 %j.1.us, 1
  %cmp8.us = icmp slt i64 %inc51.us, %sub7
  br i1 %cmp8.us, label %for.body.us, label %for.end, !llvm.loop !11

for.body:                                         ; preds = %for.body.lr.ph, %for.inc
  %tokens.055 = phi ptr [ %tokens.1, %for.inc ], [ %call, %for.body.lr.ph ]
  %j.054 = phi i64 [ %inc51, %for.inc ], [ 0, %for.body.lr.ph ]
  %start.053 = phi i64 [ %start.1, %for.inc ], [ 0, %for.body.lr.ph ]
  %slots.052 = phi i32 [ %slots.1, %for.inc ], [ 5, %for.body.lr.ph ]
  %elements.051 = phi i32 [ %elements.1, %for.inc ], [ 0, %for.body.lr.ph ]
  %add = add nsw i32 %elements.051, 2
  %cmp10 = icmp slt i32 %slots.052, %add
  br i1 %cmp10, label %if.then12, label %if.end21

if.then12:                                        ; preds = %for.body
  %mul13 = shl nsw i32 %slots.052, 1
  %conv14 = sext i32 %mul13 to i64
  %mul15 = shl nsw i64 %conv14, 3
  %call16 = tail call ptr @zrealloc(ptr noundef %tokens.055, i64 noundef %mul15) #28
  %cmp17 = icmp eq ptr %call16, null
  br i1 %cmp17, label %cleanup, label %if.end21

if.end21:                                         ; preds = %if.then12, %for.body
  %slots.1 = phi i32 [ %slots.052, %for.body ], [ %mul13, %if.then12 ]
  %tokens.1 = phi ptr [ %tokens.055, %for.body ], [ %call16, %if.then12 ]
  %add.ptr29 = getelementptr inbounds i8, ptr %s, i64 %j.054
  %bcmp = tail call i32 @bcmp(ptr %add.ptr29, ptr %sep, i64 %conv30)
  %cmp32 = icmp eq i32 %bcmp, 0
  br i1 %cmp32, label %if.then34, label %for.inc

if.then34:                                        ; preds = %if.end21
  %add.ptr35 = getelementptr inbounds i8, ptr %s, i64 %start.053
  %sub36 = sub nsw i64 %j.054, %start.053
  %call.i = tail call ptr @_sdsnewlen(ptr noundef %add.ptr35, i64 noundef %sub36, i32 noundef 0)
  %idxprom = sext i32 %elements.051 to i64
  %arrayidx38 = getelementptr inbounds ptr, ptr %tokens.1, i64 %idxprom
  store ptr %call.i, ptr %arrayidx38, align 8
  %cmp41 = icmp eq ptr %call.i, null
  br i1 %cmp41, label %cleanup, label %if.end44

if.end44:                                         ; preds = %if.then34
  %inc = add nsw i32 %elements.051, 1
  %add46 = add nsw i64 %j.054, %conv30
  %sub49 = add nsw i64 %add46, -1
  br label %for.inc

for.inc:                                          ; preds = %if.end21, %if.end44
  %elements.1 = phi i32 [ %inc, %if.end44 ], [ %elements.051, %if.end21 ]
  %start.1 = phi i64 [ %add46, %if.end44 ], [ %start.053, %if.end21 ]
  %j.1 = phi i64 [ %sub49, %if.end44 ], [ %j.054, %if.end21 ]
  %inc51 = add nsw i64 %j.1, 1
  %cmp8 = icmp slt i64 %inc51, %sub7
  br i1 %cmp8, label %for.body, label %for.end, !llvm.loop !11

for.end:                                          ; preds = %for.inc, %for.inc.us, %for.cond.preheader
  %elements.0.lcssa = phi i32 [ 0, %for.cond.preheader ], [ %elements.1.us, %for.inc.us ], [ %elements.1, %for.inc ]
  %start.0.lcssa = phi i64 [ 0, %for.cond.preheader ], [ %start.1.us, %for.inc.us ], [ %start.1, %for.inc ]
  %tokens.0.lcssa = phi ptr [ %call, %for.cond.preheader ], [ %tokens.1.us, %for.inc.us ], [ %tokens.1, %for.inc ]
  %add.ptr52 = getelementptr inbounds i8, ptr %s, i64 %start.0.lcssa
  %sub53 = sub nsw i64 %len, %start.0.lcssa
  %call.i45 = tail call ptr @_sdsnewlen(ptr noundef %add.ptr52, i64 noundef %sub53, i32 noundef 0)
  %idxprom55 = sext i32 %elements.0.lcssa to i64
  %arrayidx56 = getelementptr inbounds ptr, ptr %tokens.0.lcssa, i64 %idxprom55
  store ptr %call.i45, ptr %arrayidx56, align 8
  %cmp59 = icmp eq ptr %call.i45, null
  br i1 %cmp59, label %cleanup, label %if.end62

if.end62:                                         ; preds = %for.end
  %inc63 = add nsw i32 %elements.0.lcssa, 1
  br label %return.sink.split

cleanup:                                          ; preds = %if.then12, %if.then34, %if.then34.us, %if.then12.us, %for.end
  %elements.049 = phi i32 [ %elements.0.lcssa, %for.end ], [ %elements.051.us, %if.then12.us ], [ %elements.051.us, %if.then34.us ], [ %elements.051, %if.then34 ], [ %elements.051, %if.then12 ]
  %tokens.2 = phi ptr [ %tokens.0.lcssa, %for.end ], [ %tokens.1.us, %if.then34.us ], [ %tokens.055.us, %if.then12.us ], [ %tokens.055, %if.then12 ], [ %tokens.1, %if.then34 ]
  %cmp6562 = icmp sgt i32 %elements.049, 0
  br i1 %cmp6562, label %for.body67.preheader, label %for.end72

for.body67.preheader:                             ; preds = %cleanup
  %wide.trip.count = zext nneg i32 %elements.049 to i64
  br label %for.body67

for.body67:                                       ; preds = %for.body67.preheader, %sdsfree.exit
  %indvars.iv = phi i64 [ 0, %for.body67.preheader ], [ %indvars.iv.next, %sdsfree.exit ]
  %arrayidx69 = getelementptr inbounds ptr, ptr %tokens.2, i64 %indvars.iv
  %2 = load ptr, ptr %arrayidx69, align 8
  %cmp.i = icmp eq ptr %2, null
  br i1 %cmp.i, label %sdsfree.exit, label %if.end.i

if.end.i:                                         ; preds = %for.body67
  %arrayidx.i = getelementptr inbounds i8, ptr %2, i64 -1
  %3 = load i8, ptr %arrayidx.i, align 1
  %4 = and i8 %3, 7
  %5 = icmp ult i8 %4, 5
  br i1 %5, label %switch.lookup, label %sdsHdrSize.exit.i

switch.lookup:                                    ; preds = %if.end.i
  %6 = zext nneg i8 %4 to i64
  %switch.gep = getelementptr inbounds [5 x i64], ptr @switch.table.sdstemplate.8, i64 0, i64 %6
  %switch.load = load i64, ptr %switch.gep, align 8
  br label %sdsHdrSize.exit.i

sdsHdrSize.exit.i:                                ; preds = %if.end.i, %switch.lookup
  %retval.0.i.neg.i = phi i64 [ %switch.load, %switch.lookup ], [ 0, %if.end.i ]
  %add.ptr.i = getelementptr inbounds i8, ptr %2, i64 %retval.0.i.neg.i
  tail call void @zfree(ptr noundef nonnull %add.ptr.i) #25
  br label %sdsfree.exit

sdsfree.exit:                                     ; preds = %for.body67, %sdsHdrSize.exit.i
  %indvars.iv.next = add nuw nsw i64 %indvars.iv, 1
  %exitcond.not = icmp eq i64 %indvars.iv.next, %wide.trip.count
  br i1 %exitcond.not, label %for.end72, label %for.body67, !llvm.loop !12

for.end72:                                        ; preds = %sdsfree.exit, %cleanup
  tail call void @zfree(ptr noundef %tokens.2) #25
  br label %return.sink.split

return.sink.split:                                ; preds = %entry, %if.end62, %for.end72
  %.sink = phi i32 [ 0, %for.end72 ], [ %inc63, %if.end62 ], [ 0, %entry ]
  %retval.0.ph = phi ptr [ null, %for.end72 ], [ %tokens.0.lcssa, %if.end62 ], [ null, %entry ]
  store i32 %.sink, ptr %count, align 4
  br label %return

return:                                           ; preds = %return.sink.split, %if.end
  %retval.0 = phi ptr [ null, %if.end ], [ %retval.0.ph, %return.sink.split ]
  ret ptr %retval.0
}